; Function Attrs: mustprogress uwtable
define hidden noundef zeroext i1 @_ZN1q14theory_checker7is_instEP4expr(ptr noundef nonnull readonly align 8 captures(none) dereferenceable(32) %0, ptr noundef %1) local_unnamed_addr #3 align 2 {
  %3 = getelementptr inbounds nuw i8, ptr %1, i64 4
  %4 = load i32, ptr %3, align 4
  %5 = and i32 %4, 65535
  %6 = icmp eq i32 %5, 0
  br i1 %6, label %7, label %22

7:                                                ; preds = %2
  %8 = getelementptr inbounds nuw i8, ptr %1, i64 16
  %9 = load ptr, ptr %8, align 8, !tbaa !32
  %10 = getelementptr inbounds nuw i8, ptr %9, i64 16
  %11 = getelementptr inbounds nuw i8, ptr %0, i64 16
  %12 = load ptr, ptr %10, align 8, !tbaa !33
  %13 = load ptr, ptr %11, align 8, !tbaa !33
  %14 = icmp eq ptr %12, %13
  br i1 %14, label %15, label %22

15:                                               ; preds = %7
  %16 = getelementptr inbounds nuw i8, ptr %0, i64 8
  %17 = load ptr, ptr %16, align 8, !tbaa !3
  %18 = getelementptr inbounds nuw i8, ptr %17, i64 848
  %19 = load ptr, ptr %18, align 8, !tbaa !34
  %20 = tail call noundef ptr @_ZNK4expr8get_sortEv(ptr noundef nonnull align 4 dereferenceable(16) %1)
  %21 = icmp eq ptr %19, %20
  br label %22

22:                                               ; preds = %15, %7, %2
  %23 = phi i1 [ false, %7 ], [ false, %2 ], [ %21, %15 ]
  ret i1 %23
}